target datalayout = "e-m:e-p270:32:32-p271:32:32-p272:64:64-i64:64-i128:128-f80:128-n8:16:32:64-S128"
target triple = "x86_64-pc-linux-gnu"

%struct.MemoizeState = type { %struct.ScanState, i32, i32, ptr, ptr, ptr, ptr, ptr, ptr, ptr, ptr, i64, i64, ptr, %struct.dlist_head, ptr, ptr, i8, i8, %struct.MemoizeInstrumentation, ptr, ptr }
%struct.ScanState = type { %struct.PlanState, ptr, ptr, ptr }
%struct.PlanState = type { i32, ptr, ptr, ptr, ptr, ptr, ptr, ptr, ptr, ptr, ptr, ptr, ptr, ptr, ptr, ptr, ptr, ptr, i8, ptr, ptr, ptr, ptr, ptr, i8, i8, i8, i8, i8, i8, i8, i8 }
%struct.dlist_head = type { %struct.dlist_node }
%struct.dlist_node = type { ptr, ptr }
%struct.MemoizeInstrumentation = type { i64, i64, i64, i64, i64 }
%struct.FmgrInfo = type { ptr, i32, i16, i8, i8, i8, ptr, ptr, ptr }
%struct.ExprContext = type { i32, ptr, ptr, ptr, ptr, ptr, ptr, ptr, ptr, ptr, i64, i8, i64, i8, ptr, ptr, ptr, ptr }
%struct.TupleTableSlot = type { i32, i16, i16, ptr, ptr, ptr, ptr, ptr, %struct.ItemPointerData, i32 }
%struct.ItemPointerData = type { %struct.BlockIdData, i16 }
%struct.BlockIdData = type { i16, i16 }
%struct.memoize_hash = type { i64, i32, i32, i32, ptr, ptr, ptr }
%struct.TupleDescData = type { i32, i32, i32, i32, ptr, [0 x %struct.CompactAttribute] }
%struct.CompactAttribute = type { i32, i16, i8, i8, i8, i8, i8, i8, i8 }

@CurrentMemoryContext = external global ptr, align 8

; Function Attrs: inlinehint nounwind uwtable
define internal i32 @murmurhash32(i32 noundef %0) #2 {
  %2 = alloca i32, align 4
  %3 = alloca i32, align 4
  store i32 %0, ptr %2, align 4
  call void @llvm.lifetime.start.p0(i64 4, ptr %3) #9
  %4 = load i32, ptr %2, align 4
  store i32 %4, ptr %3, align 4
  %5 = load i32, ptr %3, align 4
  %6 = lshr i32 %5, 16
  %7 = load i32, ptr %3, align 4
  %8 = xor i32 %7, %6
  store i32 %8, ptr %3, align 4
  %9 = load i32, ptr %3, align 4
  %10 = mul i32 %9, -2048144789
  store i32 %10, ptr %3, align 4
  %11 = load i32, ptr %3, align 4
  %12 = lshr i32 %11, 13
  %13 = load i32, ptr %3, align 4
  %14 = xor i32 %13, %12
  store i32 %14, ptr %3, align 4
  %15 = load i32, ptr %3, align 4
  %16 = mul i32 %15, -1028477387
  store i32 %16, ptr %3, align 4
  %17 = load i32, ptr %3, align 4
  %18 = lshr i32 %17, 16
  %19 = load i32, ptr %3, align 4
  %20 = xor i32 %19, %18
  store i32 %20, ptr %3, align 4
  %21 = load i32, ptr %3, align 4
  call void @llvm.lifetime.end.p0(i64 4, ptr %3) #9
  ret i32 %21
}

; Function Attrs: inlinehint nounwind uwtable
define internal i32 @DatumGetUInt32(i64 noundef %0) #2 {
  %2 = alloca i64, align 8
  store i64 %0, ptr %2, align 8
  %3 = load i64, ptr %2, align 8
  %4 = trunc i64 %3 to i32
  ret i32 %4
}

; Function Attrs: inlinehint nounwind uwtable
define internal ptr @TupleDescCompactAttr(ptr noundef %0, i32 noundef %1) #2 {
  %3 = alloca ptr, align 8
  %4 = alloca i32, align 4
  %5 = alloca ptr, align 8
  store ptr %0, ptr %3, align 8
  store i32 %1, ptr %4, align 4
  call void @llvm.lifetime.start.p0(i64 8, ptr %5) #9
  %6 = load ptr, ptr %3, align 8
  %7 = getelementptr inbounds nuw %struct.TupleDescData, ptr %6, i32 0, i32 5
  %8 = load i32, ptr %4, align 4
  %9 = sext i32 %8 to i64
  %10 = getelementptr inbounds [0 x %struct.CompactAttribute], ptr %7, i64 0, i64 %9
  store ptr %10, ptr %5, align 8
  %11 = load ptr, ptr %5, align 8
  call void @llvm.lifetime.end.p0(i64 8, ptr %5) #9
  ret ptr %11
}

; Function Attrs: inlinehint nounwind uwtable
define internal i32 @pg_rotate_left32(i32 noundef %0, i32 noundef %1) #2 {
  %3 = alloca i32, align 4
  %4 = alloca i32, align 4
  store i32 %0, ptr %3, align 4
  store i32 %1, ptr %4, align 4
  %5 = load i32, ptr %3, align 4
  %6 = load i32, ptr %4, align 4
  %7 = shl i32 %5, %6
  %8 = load i32, ptr %3, align 4
  %9 = load i32, ptr %4, align 4
  %10 = sub i32 32, %9
  %11 = lshr i32 %8, %10
  %12 = or i32 %7, %11
  ret i32 %12
}

; Function Attrs: inlinehint nounwind uwtable
define internal ptr @MemoryContextSwitchTo(ptr noundef %0) #2 {
  %2 = alloca ptr, align 8
  %3 = alloca ptr, align 8
  store ptr %0, ptr %2, align 8
  call void @llvm.lifetime.start.p0(i64 8, ptr %3) #9
  %4 = load ptr, ptr @CurrentMemoryContext, align 8
  store ptr %4, ptr %3, align 8
  %5 = load ptr, ptr %2, align 8
  store ptr %5, ptr @CurrentMemoryContext, align 8
  %6 = load ptr, ptr %3, align 8
  call void @llvm.lifetime.end.p0(i64 8, ptr %3) #9
  ret ptr %6
}

; Function Attrs: nounwind uwtable
define internal i32 @MemoizeHash_hash(ptr noundef %0, ptr noundef %1) #0 {
  %3 = alloca ptr, align 8
  %4 = alloca ptr, align 8
  %5 = alloca ptr, align 8
  %6 = alloca ptr, align 8
  %7 = alloca ptr, align 8
  %8 = alloca ptr, align 8
  %9 = alloca i32, align 4
  %10 = alloca i32, align 4
  %11 = alloca i32, align 4
  %12 = alloca ptr, align 8
  %13 = alloca i32, align 4
  %14 = alloca ptr, align 8
  %15 = alloca ptr, align 8
  %16 = alloca i32, align 4
  %17 = alloca i32, align 4
  store ptr %0, ptr %3, align 8
  store ptr %1, ptr %4, align 8
  call void @llvm.lifetime.start.p0(i64 8, ptr %5) #9
  %18 = load ptr, ptr %3, align 8
  %19 = getelementptr inbounds nuw %struct.memoize_hash, ptr %18, i32 0, i32 6
  %20 = load ptr, ptr %19, align 8
  store ptr %20, ptr %5, align 8
  call void @llvm.lifetime.start.p0(i64 8, ptr %6) #9
  %21 = load ptr, ptr %5, align 8
  %22 = getelementptr inbounds nuw %struct.MemoizeState, ptr %21, i32 0, i32 0
  %23 = getelementptr inbounds nuw %struct.ScanState, ptr %22, i32 0, i32 0
  %24 = getelementptr inbounds nuw %struct.PlanState, ptr %23, i32 0, i32 16
  %25 = load ptr, ptr %24, align 8
  store ptr %25, ptr %6, align 8
  call void @llvm.lifetime.start.p0(i64 8, ptr %7) #9
  call void @llvm.lifetime.start.p0(i64 8, ptr %8) #9
  %26 = load ptr, ptr %5, align 8
  %27 = getelementptr inbounds nuw %struct.MemoizeState, ptr %26, i32 0, i32 6
  %28 = load ptr, ptr %27, align 8
  store ptr %28, ptr %8, align 8
  call void @llvm.lifetime.start.p0(i64 4, ptr %9) #9
  store i32 0, ptr %9, align 4
  call void @llvm.lifetime.start.p0(i64 4, ptr %10) #9
  %29 = load ptr, ptr %5, align 8
  %30 = getelementptr inbounds nuw %struct.MemoizeState, ptr %29, i32 0, i32 2
  %31 = load i32, ptr %30, align 4
  store i32 %31, ptr %10, align 4
  %32 = load ptr, ptr %6, align 8
  %33 = getelementptr inbounds nuw %struct.ExprContext, ptr %32, i32 0, i32 5
  %34 = load ptr, ptr %33, align 8
  %35 = call ptr @MemoryContextSwitchTo(ptr noundef %34)
  store ptr %35, ptr %7, align 8
  %36 = load ptr, ptr %5, align 8
  %37 = getelementptr inbounds nuw %struct.MemoizeState, ptr %36, i32 0, i32 18
  %38 = load i8, ptr %37, align 1, !range !6, !noundef !7
  %39 = trunc i8 %38 to i1
  br i1 %39, label %40, label %87

40:                                               ; preds = %2
  call void @llvm.lifetime.start.p0(i64 4, ptr %11) #9
  store i32 0, ptr %11, align 4
  br label %41

41:                                               ; preds = %83, %40
  %42 = load i32, ptr %11, align 4
  %43 = load i32, ptr %10, align 4
  %44 = icmp slt i32 %42, %43
  br i1 %44, label %46, label %45

45:                                               ; preds = %41
  call void @llvm.lifetime.end.p0(i64 4, ptr %11) #9
  br label %86

46:                                               ; preds = %41
  %47 = load i32, ptr %9, align 4
  %48 = call i32 @pg_rotate_left32(i32 noundef %47, i32 noundef 1)
  store i32 %48, ptr %9, align 4
  %49 = load ptr, ptr %8, align 8
  %50 = getelementptr inbounds nuw %struct.TupleTableSlot, ptr %49, i32 0, i32 6
  %51 = load ptr, ptr %50, align 8
  %52 = load i32, ptr %11, align 4
  %53 = sext i32 %52 to i64
  %54 = getelementptr inbounds i8, ptr %51, i64 %53
  %55 = load i8, ptr %54, align 1, !range !6, !noundef !7
  %56 = trunc i8 %55 to i1
  br i1 %56, label %82, label %57

57:                                               ; preds = %46
  call void @llvm.lifetime.start.p0(i64 8, ptr %12) #9
  call void @llvm.lifetime.start.p0(i64 4, ptr %13) #9
  %58 = load ptr, ptr %8, align 8
  %59 = getelementptr inbounds nuw %struct.TupleTableSlot, ptr %58, i32 0, i32 4
  %60 = load ptr, ptr %59, align 8
  %61 = load i32, ptr %11, align 4
  %62 = call ptr @TupleDescCompactAttr(ptr noundef %60, i32 noundef %61)
  store ptr %62, ptr %12, align 8
  %63 = load ptr, ptr %8, align 8
  %64 = getelementptr inbounds nuw %struct.TupleTableSlot, ptr %63, i32 0, i32 5
  %65 = load ptr, ptr %64, align 8
  %66 = load i32, ptr %11, align 4
  %67 = sext i32 %66 to i64
  %68 = getelementptr inbounds i64, ptr %65, i64 %67
  %69 = load i64, ptr %68, align 8
  %70 = load ptr, ptr %12, align 8
  %71 = getelementptr inbounds nuw %struct.CompactAttribute, ptr %70, i32 0, i32 2
  %72 = load i8, ptr %71, align 2, !range !6, !noundef !7
  %73 = trunc i8 %72 to i1
  %74 = load ptr, ptr %12, align 8
  %75 = getelementptr inbounds nuw %struct.CompactAttribute, ptr %74, i32 0, i32 1
  %76 = load i16, ptr %75, align 4
  %77 = sext i16 %76 to i32
  %78 = call i32 @datum_image_hash(i64 noundef %69, i1 noundef zeroext %73, i32 noundef %77)
  store i32 %78, ptr %13, align 4
  %79 = load i32, ptr %13, align 4
  %80 = load i32, ptr %9, align 4
  %81 = xor i32 %80, %79
  store i32 %81, ptr %9, align 4
  call void @llvm.lifetime.end.p0(i64 4, ptr %13) #9
  call void @llvm.lifetime.end.p0(i64 8, ptr %12) #9
  br label %82

82:                                               ; preds = %57, %46
  br label %83

83:                                               ; preds = %82
  %84 = load i32, ptr %11, align 4
  %85 = add i32 %84, 1
  store i32 %85, ptr %11, align 4
  br label %41, !llvm.loop !11

86:                                               ; preds = %45
  br label %137

87:                                               ; preds = %2
  call void @llvm.lifetime.start.p0(i64 8, ptr %14) #9
  %88 = load ptr, ptr %5, align 8
  %89 = getelementptr inbounds nuw %struct.MemoizeState, ptr %88, i32 0, i32 9
  %90 = load ptr, ptr %89, align 8
  store ptr %90, ptr %14, align 8
  call void @llvm.lifetime.start.p0(i64 8, ptr %15) #9
  %91 = load ptr, ptr %5, align 8
  %92 = getelementptr inbounds nuw %struct.MemoizeState, ptr %91, i32 0, i32 10
  %93 = load ptr, ptr %92, align 8
  store ptr %93, ptr %15, align 8
  call void @llvm.lifetime.start.p0(i64 4, ptr %16) #9
  store i32 0, ptr %16, align 4
  br label %94

94:                                               ; preds = %133, %87
  %95 = load i32, ptr %16, align 4
  %96 = load i32, ptr %10, align 4
  %97 = icmp slt i32 %95, %96
  br i1 %97, label %99, label %98

98:                                               ; preds = %94
  call void @llvm.lifetime.end.p0(i64 4, ptr %16) #9
  br label %136

99:                                               ; preds = %94
  %100 = load i32, ptr %9, align 4
  %101 = call i32 @pg_rotate_left32(i32 noundef %100, i32 noundef 1)
  store i32 %101, ptr %9, align 4
  %102 = load ptr, ptr %8, align 8
  %103 = getelementptr inbounds nuw %struct.TupleTableSlot, ptr %102, i32 0, i32 6
  %104 = load ptr, ptr %103, align 8
  %105 = load i32, ptr %16, align 4
  %106 = sext i32 %105 to i64
  %107 = getelementptr inbounds i8, ptr %104, i64 %106
  %108 = load i8, ptr %107, align 1, !range !6, !noundef !7
  %109 = trunc i8 %108 to i1
  br i1 %109, label %132, label %110

110:                                              ; preds = %99
  call void @llvm.lifetime.start.p0(i64 4, ptr %17) #9
  %111 = load ptr, ptr %14, align 8
  %112 = load i32, ptr %16, align 4
  %113 = sext i32 %112 to i64
  %114 = getelementptr inbounds %struct.FmgrInfo, ptr %111, i64 %113
  %115 = load ptr, ptr %15, align 8
  %116 = load i32, ptr %16, align 4
  %117 = sext i32 %116 to i64
  %118 = getelementptr inbounds i32, ptr %115, i64 %117
  %119 = load i32, ptr %118, align 4
  %120 = load ptr, ptr %8, align 8
  %121 = getelementptr inbounds nuw %struct.TupleTableSlot, ptr %120, i32 0, i32 5
  %122 = load ptr, ptr %121, align 8
  %123 = load i32, ptr %16, align 4
  %124 = sext i32 %123 to i64
  %125 = getelementptr inbounds i64, ptr %122, i64 %124
  %126 = load i64, ptr %125, align 8
  %127 = call i64 @FunctionCall1Coll(ptr noundef %114, i32 noundef %119, i64 noundef %126)
  %128 = call i32 @DatumGetUInt32(i64 noundef %127)
  store i32 %128, ptr %17, align 4
  %129 = load i32, ptr %17, align 4
  %130 = load i32, ptr %9, align 4
  %131 = xor i32 %130, %129
  store i32 %131, ptr %9, align 4
  call void @llvm.lifetime.end.p0(i64 4, ptr %17) #9
  br label %132

132:                                              ; preds = %110, %99
  br label %133

133:                                              ; preds = %132
  %134 = load i32, ptr %16, align 4
  %135 = add i32 %134, 1
  store i32 %135, ptr %16, align 4
  br label %94, !llvm.loop !12

136:                                              ; preds = %98
  call void @llvm.lifetime.end.p0(i64 8, ptr %15) #9
  call void @llvm.lifetime.end.p0(i64 8, ptr %14) #9
  br label %137

137:                                              ; preds = %136, %86
  %138 = load ptr, ptr %7, align 8
  %139 = call ptr @MemoryContextSwitchTo(ptr noundef %138)
  %140 = load i32, ptr %9, align 4
  %141 = call i32 @murmurhash32(i32 noundef %140)
  call void @llvm.lifetime.end.p0(i64 4, ptr %10) #9
  call void @llvm.lifetime.end.p0(i64 4, ptr %9) #9
  call void @llvm.lifetime.end.p0(i64 8, ptr %8) #9
  call void @llvm.lifetime.end.p0(i64 8, ptr %7) #9
  call void @llvm.lifetime.end.p0(i64 8, ptr %6) #9
  call void @llvm.lifetime.end.p0(i64 8, ptr %5) #9
  ret i32 %141
}