; Function Attrs: nounwind uwtable
define internal fastcc i32 @MemoizeHash_hash(ptr readonly captures(none) %.40.val) unnamed_addr #0 {
  %1 = getelementptr inbounds nuw i8, ptr %.40.val, i64 128
  %2 = load ptr, ptr %1, align 8
  %3 = getelementptr inbounds nuw i8, ptr %.40.val, i64 256
  %4 = load ptr, ptr %3, align 8
  %5 = getelementptr inbounds nuw i8, ptr %.40.val, i64 228
  %6 = load i32, ptr %5, align 4
  %7 = getelementptr inbounds nuw i8, ptr %2, i64 40
  %8 = load ptr, ptr %7, align 8
  %9 = load ptr, ptr @CurrentMemoryContext, align 8
  store ptr %8, ptr @CurrentMemoryContext, align 8
  %10 = getelementptr inbounds nuw i8, ptr %.40.val, i64 353
  %11 = load i8, ptr %10, align 1, !range !6, !noundef !7
  %12 = trunc nuw i8 %11 to i1
  br i1 %12, label %.preheader, label %39

.preheader:                                       ; preds = %0
  %13 = icmp sgt i32 %6, 0
  br i1 %13, label %.lr.ph6, label %.loopexit

.lr.ph6:                                          ; preds = %.preheader
  %14 = getelementptr inbounds nuw i8, ptr %4, i64 32
  %15 = getelementptr inbounds nuw i8, ptr %4, i64 16
  %16 = getelementptr inbounds nuw i8, ptr %4, i64 24
  %wide.trip.count13 = zext nneg i32 %6 to i64
  br label %17

17:                                               ; preds = %.lr.ph6, %38
  %indvars.iv10 = phi i64 [ 0, %.lr.ph6 ], [ %indvars.iv.next11, %38 ]
  %.05 = phi i32 [ 0, %.lr.ph6 ], [ %.1, %38 ]
  %18 = tail call noundef i32 @llvm.fshl.i32(i32 %.05, i32 %.05, i32 1)
  %19 = load ptr, ptr %14, align 8
  %20 = getelementptr inbounds nuw i8, ptr %19, i64 %indvars.iv10
  %21 = load i8, ptr %20, align 1, !range !6, !noundef !7
  %22 = trunc nuw i8 %21 to i1
  br i1 %22, label %38, label %23

23:                                               ; preds = %17
  %24 = load ptr, ptr %15, align 8
  %25 = getelementptr inbounds nuw i8, ptr %24, i64 24
  %26 = getelementptr inbounds nuw [0 x %struct.CompactAttribute], ptr %25, i64 0, i64 %indvars.iv10
  %27 = load ptr, ptr %16, align 8
  %28 = getelementptr inbounds nuw i64, ptr %27, i64 %indvars.iv10
  %29 = load i64, ptr %28, align 8
  %30 = getelementptr inbounds nuw i8, ptr %26, i64 6
  %31 = load i8, ptr %30, align 2, !range !6, !noundef !7
  %32 = trunc nuw i8 %31 to i1
  %33 = getelementptr inbounds nuw i8, ptr %26, i64 4
  %34 = load i16, ptr %33, align 4
  %35 = sext i16 %34 to i32
  %36 = tail call i32 @datum_image_hash(i64 noundef %29, i1 noundef zeroext %32, i32 noundef %35) #11
  %37 = xor i32 %36, %18
  br label %38

38:                                               ; preds = %17, %23
  %.1 = phi i32 [ %18, %17 ], [ %37, %23 ]
  %indvars.iv.next11 = add nuw nsw i64 %indvars.iv10, 1
  %exitcond14.not = icmp eq i64 %indvars.iv.next11, %wide.trip.count13
  br i1 %exitcond14.not, label %.loopexit, label %17, !llvm.loop !14

39:                                               ; preds = %0
  %40 = getelementptr inbounds nuw i8, ptr %.40.val, i64 280
  %41 = load ptr, ptr %40, align 8
  %42 = getelementptr inbounds nuw i8, ptr %.40.val, i64 288
  %43 = load ptr, ptr %42, align 8
  %44 = icmp sgt i32 %6, 0
  br i1 %44, label %.lr.ph, label %.loopexit

.lr.ph:                                           ; preds = %39
  %45 = getelementptr inbounds nuw i8, ptr %4, i64 32
  %46 = getelementptr inbounds nuw i8, ptr %4, i64 24
  %wide.trip.count = zext nneg i32 %6 to i64
  br label %47

47:                                               ; preds = %.lr.ph, %63
  %indvars.iv = phi i64 [ 0, %.lr.ph ], [ %indvars.iv.next, %63 ]
  %.33 = phi i32 [ 0, %.lr.ph ], [ %.4, %63 ]
  %48 = tail call noundef i32 @llvm.fshl.i32(i32 %.33, i32 %.33, i32 1)
  %49 = load ptr, ptr %45, align 8
  %50 = getelementptr inbounds nuw i8, ptr %49, i64 %indvars.iv
  %51 = load i8, ptr %50, align 1, !range !6, !noundef !7
  %52 = trunc nuw i8 %51 to i1
  br i1 %52, label %63, label %53

53:                                               ; preds = %47
  %54 = getelementptr inbounds nuw %struct.FmgrInfo, ptr %41, i64 %indvars.iv
  %55 = getelementptr inbounds nuw i32, ptr %43, i64 %indvars.iv
  %56 = load i32, ptr %55, align 4
  %57 = load ptr, ptr %46, align 8
  %58 = getelementptr inbounds nuw i64, ptr %57, i64 %indvars.iv
  %59 = load i64, ptr %58, align 8
  %60 = tail call i64 @FunctionCall1Coll(ptr noundef %54, i32 noundef %56, i64 noundef %59) #11
  %61 = trunc i64 %60 to i32
  %62 = xor i32 %48, %61
  br label %63

63:                                               ; preds = %47, %53
  %.4 = phi i32 [ %48, %47 ], [ %62, %53 ]
  %indvars.iv.next = add nuw nsw i64 %indvars.iv, 1
  %exitcond.not = icmp eq i64 %indvars.iv.next, %wide.trip.count
  br i1 %exitcond.not, label %.loopexit, label %47, !llvm.loop !15

.loopexit:                                        ; preds = %63, %38, %39, %.preheader
  %.2 = phi i32 [ 0, %.preheader ], [ 0, %39 ], [ %.1, %38 ], [ %.4, %63 ]
  store ptr %9, ptr @CurrentMemoryContext, align 8
  %64 = lshr i32 %.2, 16
  %65 = xor i32 %64, %.2
  %66 = mul i32 %65, -2048144789
  %67 = lshr i32 %66, 13
  %68 = xor i32 %67, %66
  %69 = mul i32 %68, -1028477387
  %70 = lshr i32 %69, 16
  %71 = xor i32 %70, %69
  ret i32 %71
}